target datalayout = "e-m:e-p270:32:32-p271:32:32-p272:64:64-i64:64-i128:128-f80:128-n8:16:32:64-S128"
target triple = "x86_64-pc-linux-gnu"

@_mi_heap_default = external thread_local(initialexec) global ptr, align 8

; Function Attrs: nounwind uwtable
define internal ptr @mi_heap_realloc_zero_aligned(ptr noundef %0, ptr noundef %1, i64 noundef %2, i64 noundef %3, i1 noundef zeroext %4) #0 {
  %6 = alloca ptr, align 8
  %7 = alloca ptr, align 8
  %8 = alloca ptr, align 8
  %9 = alloca i64, align 8
  %10 = alloca i64, align 8
  %11 = alloca i8, align 1
  %12 = alloca i64, align 8
  store ptr %0, ptr %7, align 8, !tbaa !3
  store ptr %1, ptr %8, align 8, !tbaa !21
  store i64 %2, ptr %9, align 8, !tbaa !8
  store i64 %3, ptr %10, align 8, !tbaa !8
  %13 = zext i1 %4 to i8
  store i8 %13, ptr %11, align 1, !tbaa !10
  %14 = load i64, ptr %10, align 8, !tbaa !8
  %15 = icmp ule i64 %14, 8
  br i1 %15, label %16, label %23

16:                                               ; preds = %5
  %17 = load ptr, ptr %7, align 8, !tbaa !3
  %18 = load ptr, ptr %8, align 8, !tbaa !21
  %19 = load i64, ptr %9, align 8, !tbaa !8
  %20 = load i8, ptr %11, align 1, !tbaa !10, !range !19, !noundef !20
  %21 = trunc i8 %20 to i1
  %22 = call ptr @_mi_heap_realloc_zero(ptr noundef %17, ptr noundef %18, i64 noundef %19, i1 noundef zeroext %21) #10
  store ptr %22, ptr %6, align 8
  br label %36

23:                                               ; preds = %5
  call void @llvm.lifetime.start.p0(i64 8, ptr %12) #11
  %24 = load ptr, ptr %8, align 8, !tbaa !21
  %25 = ptrtoint ptr %24 to i64
  %26 = load i64, ptr %10, align 8, !tbaa !8
  %27 = urem i64 %25, %26
  store i64 %27, ptr %12, align 8, !tbaa !8
  %28 = load ptr, ptr %7, align 8, !tbaa !3
  %29 = load ptr, ptr %8, align 8, !tbaa !21
  %30 = load i64, ptr %9, align 8, !tbaa !8
  %31 = load i64, ptr %10, align 8, !tbaa !8
  %32 = load i64, ptr %12, align 8, !tbaa !8
  %33 = load i8, ptr %11, align 1, !tbaa !10, !range !19, !noundef !20
  %34 = trunc i8 %33 to i1
  %35 = call ptr @mi_heap_realloc_zero_aligned_at(ptr noundef %28, ptr noundef %29, i64 noundef %30, i64 noundef %31, i64 noundef %32, i1 noundef zeroext %34) #10
  store ptr %35, ptr %6, align 8
  call void @llvm.lifetime.end.p0(i64 8, ptr %12) #11
  br label %36

36:                                               ; preds = %23, %16
  %37 = load ptr, ptr %6, align 8
  ret ptr %37
}

; Function Attrs: inlinehint nounwind uwtable
define internal zeroext i1 @mi_mul_overflow(i64 noundef %0, i64 noundef %1, ptr noundef %2) #2 {
  %4 = alloca i64, align 8
  %5 = alloca i64, align 8
  %6 = alloca ptr, align 8
  store i64 %0, ptr %4, align 8, !tbaa !8
  store i64 %1, ptr %5, align 8, !tbaa !8
  store ptr %2, ptr %6, align 8, !tbaa !22
  %7 = load i64, ptr %4, align 8, !tbaa !8
  %8 = load i64, ptr %5, align 8, !tbaa !8
  %9 = load ptr, ptr %6, align 8, !tbaa !22
  %10 = call { i64, i1 } @llvm.umul.with.overflow.i64(i64 %7, i64 %8)
  %11 = extractvalue { i64, i1 } %10, 1
  %12 = extractvalue { i64, i1 } %10, 0
  store i64 %12, ptr %9, align 8
  ret i1 %11
}

; Function Attrs: nounwind uwtable
define hidden ptr @mi_heap_rezalloc_aligned(ptr noundef %0, ptr noundef %1, i64 noundef %2, i64 noundef %3) #0 {
  %5 = alloca ptr, align 8
  %6 = alloca ptr, align 8
  %7 = alloca i64, align 8
  %8 = alloca i64, align 8
  store ptr %0, ptr %5, align 8, !tbaa !3
  store ptr %1, ptr %6, align 8, !tbaa !21
  store i64 %2, ptr %7, align 8, !tbaa !8
  store i64 %3, ptr %8, align 8, !tbaa !8
  %9 = load ptr, ptr %5, align 8, !tbaa !3
  %10 = load ptr, ptr %6, align 8, !tbaa !21
  %11 = load i64, ptr %7, align 8, !tbaa !8
  %12 = load i64, ptr %8, align 8, !tbaa !8
  %13 = call ptr @mi_heap_realloc_zero_aligned(ptr noundef %9, ptr noundef %10, i64 noundef %11, i64 noundef %12, i1 noundef zeroext true) #10
  ret ptr %13
}

; Function Attrs: inlinehint nounwind uwtable
define internal zeroext i1 @mi_count_size_overflow(i64 noundef %0, i64 noundef %1, ptr noundef %2) #2 {
  %4 = alloca i1, align 1
  %5 = alloca i64, align 8
  %6 = alloca i64, align 8
  %7 = alloca ptr, align 8
  store i64 %0, ptr %5, align 8, !tbaa !8
  store i64 %1, ptr %6, align 8, !tbaa !8
  store ptr %2, ptr %7, align 8, !tbaa !22
  %8 = load i64, ptr %5, align 8, !tbaa !8
  %9 = icmp eq i64 %8, 1
  br i1 %9, label %10, label %13

10:                                               ; preds = %3
  %11 = load i64, ptr %6, align 8, !tbaa !8
  %12 = load ptr, ptr %7, align 8, !tbaa !22
  store i64 %11, ptr %12, align 8, !tbaa !8
  store i1 false, ptr %4, align 1
  br label %27

13:                                               ; preds = %3
  %14 = load i64, ptr %5, align 8, !tbaa !8
  %15 = load i64, ptr %6, align 8, !tbaa !8
  %16 = load ptr, ptr %7, align 8, !tbaa !22
  %17 = call zeroext i1 @mi_mul_overflow(i64 noundef %14, i64 noundef %15, ptr noundef %16) #10
  %18 = xor i1 %17, true
  %19 = xor i1 %18, true
  %20 = zext i1 %19 to i32
  %21 = sext i32 %20 to i64
  %22 = call i64 @llvm.expect.i64(i64 %21, i64 0)
  %23 = icmp ne i64 %22, 0
  br i1 %23, label %24, label %26

24:                                               ; preds = %13
  %25 = load ptr, ptr %7, align 8, !tbaa !22
  store i64 -1, ptr %25, align 8, !tbaa !8
  store i1 true, ptr %4, align 1
  br label %27

26:                                               ; preds = %13
  store i1 false, ptr %4, align 1
  br label %27

27:                                               ; preds = %26, %24, %10
  %28 = load i1, ptr %4, align 1
  ret i1 %28
}

; Function Attrs: nounwind uwtable
define hidden ptr @mi_heap_recalloc_aligned(ptr noundef %0, ptr noundef %1, i64 noundef %2, i64 noundef %3, i64 noundef %4) #0 {
  %6 = alloca ptr, align 8
  %7 = alloca ptr, align 8
  %8 = alloca ptr, align 8
  %9 = alloca i64, align 8
  %10 = alloca i64, align 8
  %11 = alloca i64, align 8
  %12 = alloca i64, align 8
  %13 = alloca i32, align 4
  store ptr %0, ptr %7, align 8, !tbaa !3
  store ptr %1, ptr %8, align 8, !tbaa !21
  store i64 %2, ptr %9, align 8, !tbaa !8
  store i64 %3, ptr %10, align 8, !tbaa !8
  store i64 %4, ptr %11, align 8, !tbaa !8
  call void @llvm.lifetime.start.p0(i64 8, ptr %12) #11
  %14 = load i64, ptr %9, align 8, !tbaa !8
  %15 = load i64, ptr %10, align 8, !tbaa !8
  %16 = call zeroext i1 @mi_count_size_overflow(i64 noundef %14, i64 noundef %15, ptr noundef %12) #10
  br i1 %16, label %17, label %18

17:                                               ; preds = %5
  store ptr null, ptr %6, align 8
  store i32 1, ptr %13, align 4
  br label %24

18:                                               ; preds = %5
  %19 = load ptr, ptr %7, align 8, !tbaa !3
  %20 = load ptr, ptr %8, align 8, !tbaa !21
  %21 = load i64, ptr %12, align 8, !tbaa !8
  %22 = load i64, ptr %11, align 8, !tbaa !8
  %23 = call ptr @mi_heap_rezalloc_aligned(ptr noundef %19, ptr noundef %20, i64 noundef %21, i64 noundef %22) #10
  store ptr %23, ptr %6, align 8
  store i32 1, ptr %13, align 4
  br label %24

24:                                               ; preds = %18, %17
  call void @llvm.lifetime.end.p0(i64 8, ptr %12) #11
  %25 = load ptr, ptr %6, align 8
  ret ptr %25
}

; Function Attrs: inlinehint nounwind uwtable
define internal ptr @mi_prim_get_default_heap() #2 {
  %1 = call align 8 ptr @llvm.threadlocal.address.p0(ptr align 8 @_mi_heap_default)
  %2 = load ptr, ptr %1, align 8, !tbaa !3
  ret ptr %2
}

; Function Attrs: nounwind uwtable
define hidden ptr @mi_recalloc_aligned(ptr noundef %0, i64 noundef %1, i64 noundef %2, i64 noundef %3) #0 {
  %5 = alloca ptr, align 8
  %6 = alloca i64, align 8
  %7 = alloca i64, align 8
  %8 = alloca i64, align 8
  store ptr %0, ptr %5, align 8, !tbaa !21
  store i64 %1, ptr %6, align 8, !tbaa !8
  store i64 %2, ptr %7, align 8, !tbaa !8
  store i64 %3, ptr %8, align 8, !tbaa !8
  %9 = call ptr @mi_prim_get_default_heap() #10
  %10 = load ptr, ptr %5, align 8, !tbaa !21
  %11 = load i64, ptr %6, align 8, !tbaa !8
  %12 = load i64, ptr %7, align 8, !tbaa !8
  %13 = load i64, ptr %8, align 8, !tbaa !8
  %14 = call ptr @mi_heap_recalloc_aligned(ptr noundef %9, ptr noundef %10, i64 noundef %11, i64 noundef %12, i64 noundef %13) #10
  ret ptr %14
}