; Function Attrs: nounwind uwtable
define hidden ptr @mi_recalloc_aligned(ptr noundef %0, i64 noundef %1, i64 noundef %2, i64 noundef %3) local_unnamed_addr #0 {
  %5 = tail call align 8 ptr @llvm.threadlocal.address.p0(ptr align 8 @_mi_heap_default)
  %6 = load ptr, ptr %5, align 8, !tbaa !17
  %.not.i = icmp eq i64 %1, 1
  br i1 %.not.i, label %11, label %7

7:                                                ; preds = %4
  %8 = tail call { i64, i1 } @llvm.umul.with.overflow.i64(i64 range(i64 2, 1) %1, i64 %2)
  %9 = extractvalue { i64, i1 } %8, 1
  %10 = extractvalue { i64, i1 } %8, 0
  br i1 %9, label %mi_heap_recalloc_aligned.exit, label %11, !prof !16

11:                                               ; preds = %7, %4
  %storemerge.i.ph.i = phi i64 [ %2, %4 ], [ %10, %7 ]
  %12 = icmp ult i64 %3, 9
  br i1 %12, label %13, label %15

13:                                               ; preds = %11
  %14 = tail call ptr @_mi_heap_realloc_zero(ptr noundef %6, ptr noundef %0, i64 noundef %storemerge.i.ph.i, i1 noundef zeroext true) #8
  br label %mi_heap_recalloc_aligned.exit

15:                                               ; preds = %11
  %16 = ptrtoint ptr %0 to i64
  %17 = urem i64 %16, %3
  %18 = tail call fastcc ptr @mi_heap_realloc_zero_aligned_at(ptr noundef %6, ptr noundef %0, i64 noundef %storemerge.i.ph.i, i64 noundef %3, i64 noundef %17, i1 noundef zeroext true) #9
  br label %mi_heap_recalloc_aligned.exit

mi_heap_recalloc_aligned.exit:                    ; preds = %7, %13, %15
  %.0.i = phi ptr [ null, %7 ], [ %14, %13 ], [ %18, %15 ]
  ret ptr %.0.i
}